; Function Attrs: mustprogress uwtable
define hidden noundef ptr @_ZN12bv2real_util9mk_bv_subEP4exprS1_(ptr noundef nonnull align 8 dereferenceable(272) %this, ptr noundef %s, ptr noundef %t) local_unnamed_addr #3 align 2 personality ptr @__gxx_personality_v0 {
entry:
  %s1 = alloca %class.obj_ref.42, align 8
  %t1 = alloca %class.obj_ref.42, align 8
  %0 = load ptr, ptr %this, align 8
  store ptr %s, ptr %s1, align 8
  %m_manager.i = getelementptr inbounds i8, ptr %s1, i64 8
  store ptr %0, ptr %m_manager.i, align 8
  %tobool.not.i.i = icmp eq ptr %s, null
  br i1 %tobool.not.i.i, label %_ZN7obj_refI4expr11ast_managerEC2EPS0_RS1_.exit, label %_ZN11ast_manager7inc_refEP3ast.exit.i.i

_ZN11ast_manager7inc_refEP3ast.exit.i.i:          ; preds = %entry
  %m_ref_count.i.i.i.i = getelementptr inbounds i8, ptr %s, i64 8
  %1 = load i32, ptr %m_ref_count.i.i.i.i, align 4
  %inc.i.i.i.i = add i32 %1, 1
  store i32 %inc.i.i.i.i, ptr %m_ref_count.i.i.i.i, align 4
  %.pre = load ptr, ptr %this, align 8
  br label %_ZN7obj_refI4expr11ast_managerEC2EPS0_RS1_.exit

_ZN7obj_refI4expr11ast_managerEC2EPS0_RS1_.exit:  ; preds = %entry, %_ZN11ast_manager7inc_refEP3ast.exit.i.i
  %2 = phi ptr [ %0, %entry ], [ %.pre, %_ZN11ast_manager7inc_refEP3ast.exit.i.i ]
  store ptr %t, ptr %t1, align 8
  %m_manager.i2 = getelementptr inbounds i8, ptr %t1, i64 8
  store ptr %2, ptr %m_manager.i2, align 8
  %tobool.not.i.i3 = icmp eq ptr %t, null
  br i1 %tobool.not.i.i3, label %invoke.cont3, label %_ZN11ast_manager7inc_refEP3ast.exit.i.i4

_ZN11ast_manager7inc_refEP3ast.exit.i.i4:         ; preds = %_ZN7obj_refI4expr11ast_managerEC2EPS0_RS1_.exit
  %m_ref_count.i.i.i.i5 = getelementptr inbounds i8, ptr %t, i64 8
  %3 = load i32, ptr %m_ref_count.i.i.i.i5, align 4
  %inc.i.i.i.i6 = add i32 %3, 1
  store i32 %inc.i.i.i.i6, ptr %m_ref_count.i.i.i.i5, align 4
  br label %invoke.cont3

invoke.cont3:                                     ; preds = %_ZN11ast_manager7inc_refEP3ast.exit.i.i4, %_ZN7obj_refI4expr11ast_managerEC2EPS0_RS1_.exit
  invoke void @_ZN12bv2real_util11align_sizesER7obj_refI4expr11ast_managerES4_(ptr noundef nonnull align 8 dereferenceable(272) %this, ptr noundef nonnull align 8 dereferenceable(16) %s1, ptr noundef nonnull align 8 dereferenceable(16) %t1)
          to label %invoke.cont5 unwind label %lpad4

invoke.cont5:                                     ; preds = %invoke.cont3
  %4 = load ptr, ptr %s1, align 8
  %call9 = invoke noundef ptr @_ZN12bv2real_util9mk_extendEjP4expr(ptr noundef nonnull align 8 dereferenceable(272) %this, i32 noundef 1, ptr noundef %4)
          to label %invoke.cont8 unwind label %lpad4

invoke.cont8:                                     ; preds = %invoke.cont5
  %tobool.not.i = icmp eq ptr %call9, null
  br i1 %tobool.not.i, label %if.end.i, label %_ZN11ast_manager7inc_refEP3ast.exit.i

_ZN11ast_manager7inc_refEP3ast.exit.i:            ; preds = %invoke.cont8
  %m_ref_count.i.i.i = getelementptr inbounds i8, ptr %call9, i64 8
  %5 = load i32, ptr %m_ref_count.i.i.i, align 4
  %inc.i.i.i = add i32 %5, 1
  store i32 %inc.i.i.i, ptr %m_ref_count.i.i.i, align 4
  br label %if.end.i

if.end.i:                                         ; preds = %_ZN11ast_manager7inc_refEP3ast.exit.i, %invoke.cont8
  %tobool.not.i3.i = icmp eq ptr %4, null
  br i1 %tobool.not.i3.i, label %invoke.cont10, label %if.then.i.i.i

if.then.i.i.i:                                    ; preds = %if.end.i
  %6 = load ptr, ptr %m_manager.i, align 8
  %m_ref_count.i.i.i.i8 = getelementptr inbounds i8, ptr %4, i64 8
  %7 = load i32, ptr %m_ref_count.i.i.i.i8, align 4
  %dec.i.i.i.i = add i32 %7, -1
  store i32 %dec.i.i.i.i, ptr %m_ref_count.i.i.i.i8, align 4
  %cmp.i.i.i = icmp eq i32 %dec.i.i.i.i, 0
  br i1 %cmp.i.i.i, label %if.then2.i.i.i, label %invoke.cont10

if.then2.i.i.i:                                   ; preds = %if.then.i.i.i
  invoke void @_ZN11ast_manager11delete_nodeEP3ast(ptr noundef nonnull align 8 dereferenceable(976) %6, ptr noundef nonnull %4)
          to label %invoke.cont10 unwind label %lpad4

invoke.cont10:                                    ; preds = %if.then.i.i.i, %if.end.i, %if.then2.i.i.i
  store ptr %call9, ptr %s1, align 8
  %8 = load ptr, ptr %t1, align 8
  %call15 = invoke noundef ptr @_ZN12bv2real_util9mk_extendEjP4expr(ptr noundef nonnull align 8 dereferenceable(272) %this, i32 noundef 1, ptr noundef %8)
          to label %invoke.cont14 unwind label %lpad4

invoke.cont14:                                    ; preds = %invoke.cont10
  %tobool.not.i9 = icmp eq ptr %call15, null
  br i1 %tobool.not.i9, label %if.end.i13, label %_ZN11ast_manager7inc_refEP3ast.exit.i10

_ZN11ast_manager7inc_refEP3ast.exit.i10:          ; preds = %invoke.cont14
  %m_ref_count.i.i.i11 = getelementptr inbounds i8, ptr %call15, i64 8
  %9 = load i32, ptr %m_ref_count.i.i.i11, align 4
  %inc.i.i.i12 = add i32 %9, 1
  store i32 %inc.i.i.i12, ptr %m_ref_count.i.i.i11, align 4
  br label %if.end.i13

if.end.i13:                                       ; preds = %_ZN11ast_manager7inc_refEP3ast.exit.i10, %invoke.cont14
  %tobool.not.i3.i14 = icmp eq ptr %8, null
  br i1 %tobool.not.i3.i14, label %invoke.cont16, label %if.then.i.i.i15

if.then.i.i.i15:                                  ; preds = %if.end.i13
  %10 = load ptr, ptr %m_manager.i2, align 8
  %m_ref_count.i.i.i.i17 = getelementptr inbounds i8, ptr %8, i64 8
  %11 = load i32, ptr %m_ref_count.i.i.i.i17, align 4
  %dec.i.i.i.i18 = add i32 %11, -1
  store i32 %dec.i.i.i.i18, ptr %m_ref_count.i.i.i.i17, align 4
  %cmp.i.i.i19 = icmp eq i32 %dec.i.i.i.i18, 0
  br i1 %cmp.i.i.i19, label %if.then2.i.i.i20, label %invoke.cont16

if.then2.i.i.i20:                                 ; preds = %if.then.i.i.i15
  invoke void @_ZN11ast_manager11delete_nodeEP3ast(ptr noundef nonnull align 8 dereferenceable(976) %10, ptr noundef nonnull %8)
          to label %invoke.cont16 unwind label %lpad4

invoke.cont16:                                    ; preds = %if.then.i.i.i15, %if.end.i13, %if.then2.i.i.i20
  store ptr %call15, ptr %t1, align 8
  %m_bv = getelementptr inbounds i8, ptr %this, i64 24
  %m_manager.i23 = getelementptr inbounds i8, ptr %this, i64 32
  %12 = load ptr, ptr %m_manager.i23, align 8
  %13 = load i32, ptr %m_bv, align 8
  %call2.i24 = invoke noundef ptr @_ZN11ast_manager6mk_appEiiP4exprS1_(ptr noundef nonnull align 8 dereferenceable(976) %12, i32 noundef %13, i32 noundef 5, ptr noundef %call9, ptr noundef %call15)
          to label %invoke.cont22 unwind label %lpad4

invoke.cont22:                                    ; preds = %invoke.cont16
  br i1 %tobool.not.i9, label %_ZN7obj_refI4expr11ast_managerED2Ev.exit, label %if.then.i.i.i26

if.then.i.i.i26:                                  ; preds = %invoke.cont22
  %14 = load ptr, ptr %m_manager.i2, align 8
  %m_ref_count.i.i.i.i28 = getelementptr inbounds i8, ptr %call15, i64 8
  %15 = load i32, ptr %m_ref_count.i.i.i.i28, align 4
  %dec.i.i.i.i29 = add i32 %15, -1
  store i32 %dec.i.i.i.i29, ptr %m_ref_count.i.i.i.i28, align 4
  %cmp.i.i.i30 = icmp eq i32 %dec.i.i.i.i29, 0
  br i1 %cmp.i.i.i30, label %if.then2.i.i.i31, label %_ZN7obj_refI4expr11ast_managerED2Ev.exit

if.then2.i.i.i31:                                 ; preds = %if.then.i.i.i26
  invoke void @_ZN11ast_manager11delete_nodeEP3ast(ptr noundef nonnull align 8 dereferenceable(976) %14, ptr noundef nonnull %call15)
          to label %_ZN7obj_refI4expr11ast_managerED2Ev.exit unwind label %terminate.lpad.i

terminate.lpad.i:                                 ; preds = %if.then2.i.i.i31
  %16 = landingpad { ptr, i32 }
          catch ptr null
  %17 = extractvalue { ptr, i32 } %16, 0
  tail call void @__clang_call_terminate(ptr %17) #18
  unreachable

_ZN7obj_refI4expr11ast_managerED2Ev.exit:         ; preds = %invoke.cont22, %if.then.i.i.i26, %if.then2.i.i.i31
  br i1 %tobool.not.i, label %_ZN7obj_refI4expr11ast_managerED2Ev.exit40, label %if.then.i.i.i33

if.then.i.i.i33:                                  ; preds = %_ZN7obj_refI4expr11ast_managerED2Ev.exit
  %18 = load ptr, ptr %m_manager.i, align 8
  %m_ref_count.i.i.i.i35 = getelementptr inbounds i8, ptr %call9, i64 8
  %19 = load i32, ptr %m_ref_count.i.i.i.i35, align 4
  %dec.i.i.i.i36 = add i32 %19, -1
  store i32 %dec.i.i.i.i36, ptr %m_ref_count.i.i.i.i35, align 4
  %cmp.i.i.i37 = icmp eq i32 %dec.i.i.i.i36, 0
  br i1 %cmp.i.i.i37, label %if.then2.i.i.i38, label %_ZN7obj_refI4expr11ast_managerED2Ev.exit40

if.then2.i.i.i38:                                 ; preds = %if.then.i.i.i33
  invoke void @_ZN11ast_manager11delete_nodeEP3ast(ptr noundef nonnull align 8 dereferenceable(976) %18, ptr noundef nonnull %call9)
          to label %_ZN7obj_refI4expr11ast_managerED2Ev.exit40 unwind label %terminate.lpad.i39

terminate.lpad.i39:                               ; preds = %if.then2.i.i.i38
  %20 = landingpad { ptr, i32 }
          catch ptr null
  %21 = extractvalue { ptr, i32 } %20, 0
  tail call void @__clang_call_terminate(ptr %21) #18
  unreachable

_ZN7obj_refI4expr11ast_managerED2Ev.exit40:       ; preds = %_ZN7obj_refI4expr11ast_managerED2Ev.exit, %if.then.i.i.i33, %if.then2.i.i.i38
  ret ptr %call2.i24

lpad4:                                            ; preds = %invoke.cont16, %if.then2.i.i.i20, %if.then2.i.i.i, %invoke.cont10, %invoke.cont5, %invoke.cont3
  %22 = landingpad { ptr, i32 }
          cleanup
  call void @_ZN7obj_refI4expr11ast_managerED2Ev(ptr noundef nonnull align 8 dereferenceable(16) %t1) #19
  call void @_ZN7obj_refI4expr11ast_managerED2Ev(ptr noundef nonnull align 8 dereferenceable(16) %s1) #19
  resume { ptr, i32 } %22
}